ccopy_reg
_reconstructor
p0
(csympy.matrices.dense
MutableDenseMatrix
p1
c__builtin__
object
p2
Ntp3
Rp4
(dp5
S'rows'
p6
I3
sS'_mat'
p7
(lp8
csympy.core.add
Add
p9
(csympy.core.mul
Mul
p10
(csympy.functions.elementary.trigonometric
sin
p11
(csympy.core.symbol
Symbol
p12
(S'r'
p13
tp14
Rp15
(dp16
S'_assumptions'
p17
g0
(csympy.core.assumptions
StdFactKB
p18
c__builtin__
dict
p19
(dp20
S'real'
p21
NsS'zero'
p22
NsS'complex'
p23
NsS'commutative'
p24
I01
sS'rational'
p25
NsS'positive'
p26
NsS'negative'
p27
Nstp28
Rp29
(dp30
S'_generator'
p31
(dp32
sbsbtp33
Rp34
(dp35
bg11
(g12
(S'y'
p36
tp37
Rp38
(dp39
g17
g0
(g18
g19
(dp40
g21
Nsg22
Nsg23
Nsg24
I01
sg25
Nsg26
Nsg27
Nstp41
Rp42
(dp43
g31
(dp44
sbsbtp45
Rp46
(dp47
btp48
Rp49
(dp50
bg10
(csympy.functions.elementary.trigonometric
cos
p51
(g15
tp52
Rp53
(dp54
bg51
(g38
tp55
Rp56
(dp57
bg11
(g12
(S'p'
p58
tp59
Rp60
(dp61
g17
g0
(g18
g19
(dp62
g21
Nsg22
Nsg23
Nsg24
I01
sg25
Nsg26
Nsg27
Nstp63
Rp64
(dp65
g31
(dp66
sbsbtp67
Rp68
(dp69
btp70
Rp71
(dp72
btp73
Rp74
(dp75
bag9
(g10
(g53
g46
tp76
Rp77
(dp78
bg10
(csympy.core.numbers
NegativeOne
p79
(I-1
tp80
Rp81
(dp82
bg56
g68
g34
tp83
Rp84
(dp85
btp86
Rp87
(dp88
bag10
(g51
(g60
tp89
Rp90
(dp91
bg56
tp92
Rp93
(dp94
bag9
(g10
(g81
g56
g34
tp95
Rp96
(dp97
bg10
(g53
g68
g46
tp98
Rp99
(dp100
btp101
Rp102
(dp103
bag9
(g10
(g81
g53
g56
tp104
Rp105
(dp106
bg10
(g81
g68
g34
g46
tp107
Rp108
(dp109
btp110
Rp111
(dp112
bag10
(g90
g46
tp113
Rp114
(dp115
bag10
(g90
g53
tp116
Rp117
(dp118
bag10
(g81
g90
g34
tp119
Rp120
(dp121
bag10
(g81
g68
tp122
Rp123
(dp124
basS'cols'
p125
I3
sb.